; Function Attrs: mustprogress nofree norecurse nosync nounwind willreturn memory(read, inaccessiblemem: none) uwtable
define hidden noundef zeroext i1 @_ZNK4cvc58internal6String10isRepeatedEv(ptr nocapture noundef nonnull readonly align 8 dereferenceable(24) %this) local_unnamed_addr #4 align 2 {
entry:
  %_M_finish.i.i = getelementptr inbounds i8, ptr %this, i64 8
  %0 = load ptr, ptr %_M_finish.i.i, align 8
  %1 = load ptr, ptr %this, align 8
  %sub.ptr.lhs.cast.i.i = ptrtoint ptr %0 to i64
  %sub.ptr.rhs.cast.i.i = ptrtoint ptr %1 to i64
  %sub.ptr.sub.i.i = sub i64 %sub.ptr.lhs.cast.i.i, %sub.ptr.rhs.cast.i.i
  %sub.ptr.div.i.i = ashr exact i64 %sub.ptr.sub.i.i, 2
  %cmp = icmp ugt i64 %sub.ptr.div.i.i, 1
  br i1 %cmp, label %if.then, label %return

if.then:                                          ; preds = %entry
  %2 = load i32, ptr %1, align 4
  br label %for.body

for.body:                                         ; preds = %for.body, %if.then
  %conv9 = phi i64 [ 1, %if.then ], [ %conv, %for.body ]
  %i.08 = phi i32 [ 1, %if.then ], [ %inc, %for.body ]
  %add.ptr.i = getelementptr inbounds i32, ptr %1, i64 %conv9
  %3 = load i32, ptr %add.ptr.i, align 4
  %cmp8.not = icmp eq i32 %2, %3
  %inc = add i32 %i.08, 1
  %conv = zext i32 %inc to i64
  %cmp4 = icmp ugt i64 %sub.ptr.div.i.i, %conv
  %or.cond = select i1 %cmp8.not, i1 %cmp4, i1 false
  br i1 %or.cond, label %for.body, label %return, !llvm.loop !35

return:                                           ; preds = %for.body, %entry
  %retval.0 = phi i1 [ true, %entry ], [ %cmp8.not, %for.body ]
  ret i1 %retval.0
}